; Function Attrs: nounwind uwtable
define internal { i64, i64 } @js_os_symlink(ptr noundef %0, i64 %1, i64 %2, i32 %3, ptr nocapture noundef readonly %4) #0 {
  %6 = load i64, ptr %4, align 8
  %7 = getelementptr inbounds i8, ptr %4, i64 8
  %8 = load i64, ptr %7, align 8
  %9 = tail call ptr @JS_ToCStringLen2(ptr noundef %0, ptr noundef null, i64 %6, i64 %8, i32 noundef 0) #29
  %.not = icmp eq ptr %9, null
  br i1 %.not, label %23, label %10

10:                                               ; preds = %5
  %11 = getelementptr i8, ptr %4, i64 16
  %12 = load i64, ptr %11, align 8
  %13 = getelementptr i8, ptr %4, i64 24
  %14 = load i64, ptr %13, align 8
  %15 = tail call ptr @JS_ToCStringLen2(ptr noundef %0, ptr noundef null, i64 %12, i64 %14, i32 noundef 0) #29
  %.not23 = icmp eq ptr %15, null
  br i1 %.not23, label %.sink.split, label %16

16:                                               ; preds = %10
  %17 = tail call i32 @symlink(ptr noundef nonnull %9, ptr noundef nonnull %15) #29
  %18 = icmp eq i32 %17, -1
  br i1 %18, label %19, label %js_get_errno.exit

19:                                               ; preds = %16
  %20 = tail call ptr @__errno_location() #28
  %21 = load i32, ptr %20, align 4
  %22 = sub i32 0, %21
  br label %js_get_errno.exit

js_get_errno.exit:                                ; preds = %16, %19
  %.0.i.in = phi i32 [ %22, %19 ], [ %17, %16 ]
  %.0.i = zext i32 %.0.i.in to i64
  tail call void @JS_FreeCString(ptr noundef %0, ptr noundef nonnull %9) #29
  br label %.sink.split

.sink.split:                                      ; preds = %10, %js_get_errno.exit
  %.sink = phi ptr [ %15, %js_get_errno.exit ], [ %9, %10 ]
  %.sroa.015.0.ph = phi i64 [ %.0.i, %js_get_errno.exit ], [ 0, %10 ]
  %.sroa.4.sroa.2.0.ph = phi i64 [ 0, %js_get_errno.exit ], [ 6, %10 ]
  tail call void @JS_FreeCString(ptr noundef %0, ptr noundef nonnull %.sink) #29
  br label %23

23:                                               ; preds = %.sink.split, %5
  %.sroa.015.0 = phi i64 [ 0, %5 ], [ %.sroa.015.0.ph, %.sink.split ]
  %.sroa.4.sroa.2.0 = phi i64 [ 6, %5 ], [ %.sroa.4.sroa.2.0.ph, %.sink.split ]
  %.fca.0.insert = insertvalue { i64, i64 } poison, i64 %.sroa.015.0, 0
  %.fca.1.insert = insertvalue { i64, i64 } %.fca.0.insert, i64 %.sroa.4.sroa.2.0, 1
  ret { i64, i64 } %.fca.1.insert
}